(dp0
S'heroes'
p1
(lp2
(dp3
Vlocalized_name
p4
VAnti-Mage
p5
sS'url_full_portrait'
p6
Vhttp://cdn.dota2.com/apps/dota2/images/heroes/antimage_full.png
p7
sVname
p8
Vnpc_dota_hero_antimage
p9
sS'url_small_portrait'
p10
Vhttp://cdn.dota2.com/apps/dota2/images/heroes/antimage_sb.png
p11
sS'url_large_portrait'
p12
Vhttp://cdn.dota2.com/apps/dota2/images/heroes/antimage_lg.png
p13
sS'url_vertical_portrait'
p14
Vhttp://cdn.dota2.com/apps/dota2/images/heroes/antimage_vert.jpg
p15
sVid
p16
I1
sa(dp17
g4
VAxe
p18
sg6
Vhttp://cdn.dota2.com/apps/dota2/images/heroes/axe_full.png
p19
sg8
Vnpc_dota_hero_axe
p20
sg10
Vhttp://cdn.dota2.com/apps/dota2/images/heroes/axe_sb.png
p21
sg12
Vhttp://cdn.dota2.com/apps/dota2/images/heroes/axe_lg.png
p22
sg14
Vhttp://cdn.dota2.com/apps/dota2/images/heroes/axe_vert.jpg
p23
sg16
I2
sa(dp24
g4
VBane
p25
sg6
Vhttp://cdn.dota2.com/apps/dota2/images/heroes/bane_full.png
p26
sg8
Vnpc_dota_hero_bane
p27
sg10
Vhttp://cdn.dota2.com/apps/dota2/images/heroes/bane_sb.png
p28
sg12
Vhttp://cdn.dota2.com/apps/dota2/images/heroes/bane_lg.png
p29
sg14
Vhttp://cdn.dota2.com/apps/dota2/images/heroes/bane_vert.jpg
p30
sg16
I3
sa(dp31
g4
VBloodseeker
p32
sg6
Vhttp://cdn.dota2.com/apps/dota2/images/heroes/bloodseeker_full.png
p33
sg8
Vnpc_dota_hero_bloodseeker
p34
sg10
Vhttp://cdn.dota2.com/apps/dota2/images/heroes/bloodseeker_sb.png
p35
sg12
Vhttp://cdn.dota2.com/apps/dota2/images/heroes/bloodseeker_lg.png
p36
sg14
Vhttp://cdn.dota2.com/apps/dota2/images/heroes/bloodseeker_vert.jpg
p37
sg16
I4
sa(dp38
g4
VCrystal Maiden
p39
sg6
Vhttp://cdn.dota2.com/apps/dota2/images/heroes/crystal_maiden_full.png
p40
sg8
Vnpc_dota_hero_crystal_maiden
p41
sg10
Vhttp://cdn.dota2.com/apps/dota2/images/heroes/crystal_maiden_sb.png
p42
sg12
Vhttp://cdn.dota2.com/apps/dota2/images/heroes/crystal_maiden_lg.png
p43
sg14
Vhttp://cdn.dota2.com/apps/dota2/images/heroes/crystal_maiden_vert.jpg
p44
sg16
I5
sa(dp45
g4
VDrow Ranger
p46
sg6
Vhttp://cdn.dota2.com/apps/dota2/images/heroes/drow_ranger_full.png
p47
sg8
Vnpc_dota_hero_drow_ranger
p48
sg10
Vhttp://cdn.dota2.com/apps/dota2/images/heroes/drow_ranger_sb.png
p49
sg12
Vhttp://cdn.dota2.com/apps/dota2/images/heroes/drow_ranger_lg.png
p50
sg14
Vhttp://cdn.dota2.com/apps/dota2/images/heroes/drow_ranger_vert.jpg
p51
sg16
I6
sa(dp52
g4
VEarthshaker
p53
sg6
Vhttp://cdn.dota2.com/apps/dota2/images/heroes/earthshaker_full.png
p54
sg8
Vnpc_dota_hero_earthshaker
p55
sg10
Vhttp://cdn.dota2.com/apps/dota2/images/heroes/earthshaker_sb.png
p56
sg12
Vhttp://cdn.dota2.com/apps/dota2/images/heroes/earthshaker_lg.png
p57
sg14
Vhttp://cdn.dota2.com/apps/dota2/images/heroes/earthshaker_vert.jpg
p58
sg16
I7
sa(dp59
g4
VJuggernaut
p60
sg6
Vhttp://cdn.dota2.com/apps/dota2/images/heroes/juggernaut_full.png
p61
sg8
Vnpc_dota_hero_juggernaut
p62
sg10
Vhttp://cdn.dota2.com/apps/dota2/images/heroes/juggernaut_sb.png
p63
sg12
Vhttp://cdn.dota2.com/apps/dota2/images/heroes/juggernaut_lg.png
p64
sg14
Vhttp://cdn.dota2.com/apps/dota2/images/heroes/juggernaut_vert.jpg
p65
sg16
I8
sa(dp66
g4
VMirana
p67
sg6
Vhttp://cdn.dota2.com/apps/dota2/images/heroes/mirana_full.png
p68
sg8
Vnpc_dota_hero_mirana
p69
sg10
Vhttp://cdn.dota2.com/apps/dota2/images/heroes/mirana_sb.png
p70
sg12
Vhttp://cdn.dota2.com/apps/dota2/images/heroes/mirana_lg.png
p71
sg14
Vhttp://cdn.dota2.com/apps/dota2/images/heroes/mirana_vert.jpg
p72
sg16
I9
sa(dp73
g4
VShadow Fiend
p74
sg6
Vhttp://cdn.dota2.com/apps/dota2/images/heroes/nevermore_full.png
p75
sg8
Vnpc_dota_hero_nevermore
p76
sg10
Vhttp://cdn.dota2.com/apps/dota2/images/heroes/nevermore_sb.png
p77
sg12
Vhttp://cdn.dota2.com/apps/dota2/images/heroes/nevermore_lg.png
p78
sg14
Vhttp://cdn.dota2.com/apps/dota2/images/heroes/nevermore_vert.jpg
p79
sg16
I11
sa(dp80
g4
VMorphling
p81
sg6
Vhttp://cdn.dota2.com/apps/dota2/images/heroes/morphling_full.png
p82
sg8
Vnpc_dota_hero_morphling
p83
sg10
Vhttp://cdn.dota2.com/apps/dota2/images/heroes/morphling_sb.png
p84
sg12
Vhttp://cdn.dota2.com/apps/dota2/images/heroes/morphling_lg.png
p85
sg14
Vhttp://cdn.dota2.com/apps/dota2/images/heroes/morphling_vert.jpg
p86
sg16
I10
sa(dp87
g4
VPhantom Lancer
p88
sg6
Vhttp://cdn.dota2.com/apps/dota2/images/heroes/phantom_lancer_full.png
p89
sg8
Vnpc_dota_hero_phantom_lancer
p90
sg10
Vhttp://cdn.dota2.com/apps/dota2/images/heroes/phantom_lancer_sb.png
p91
sg12
Vhttp://cdn.dota2.com/apps/dota2/images/heroes/phantom_lancer_lg.png
p92
sg14
Vhttp://cdn.dota2.com/apps/dota2/images/heroes/phantom_lancer_vert.jpg
p93
sg16
I12
sa(dp94
g4
VPuck
p95
sg6
Vhttp://cdn.dota2.com/apps/dota2/images/heroes/puck_full.png
p96
sg8
Vnpc_dota_hero_puck
p97
sg10
Vhttp://cdn.dota2.com/apps/dota2/images/heroes/puck_sb.png
p98
sg12
Vhttp://cdn.dota2.com/apps/dota2/images/heroes/puck_lg.png
p99
sg14
Vhttp://cdn.dota2.com/apps/dota2/images/heroes/puck_vert.jpg
p100
sg16
I13
sa(dp101
g4
VPudge
p102
sg6
Vhttp://cdn.dota2.com/apps/dota2/images/heroes/pudge_full.png
p103
sg8
Vnpc_dota_hero_pudge
p104
sg10
Vhttp://cdn.dota2.com/apps/dota2/images/heroes/pudge_sb.png
p105
sg12
Vhttp://cdn.dota2.com/apps/dota2/images/heroes/pudge_lg.png
p106
sg14
Vhttp://cdn.dota2.com/apps/dota2/images/heroes/pudge_vert.jpg
p107
sg16
I14
sa(dp108
g4
VRazor
p109
sg6
Vhttp://cdn.dota2.com/apps/dota2/images/heroes/razor_full.png
p110
sg8
Vnpc_dota_hero_razor
p111
sg10
Vhttp://cdn.dota2.com/apps/dota2/images/heroes/razor_sb.png
p112
sg12
Vhttp://cdn.dota2.com/apps/dota2/images/heroes/razor_lg.png
p113
sg14
Vhttp://cdn.dota2.com/apps/dota2/images/heroes/razor_vert.jpg
p114
sg16
I15
sa(dp115
g4
VSand King
p116
sg6
Vhttp://cdn.dota2.com/apps/dota2/images/heroes/sand_king_full.png
p117
sg8
Vnpc_dota_hero_sand_king
p118
sg10
Vhttp://cdn.dota2.com/apps/dota2/images/heroes/sand_king_sb.png
p119
sg12
Vhttp://cdn.dota2.com/apps/dota2/images/heroes/sand_king_lg.png
p120
sg14
Vhttp://cdn.dota2.com/apps/dota2/images/heroes/sand_king_vert.jpg
p121
sg16
I16
sa(dp122
g4
VStorm Spirit
p123
sg6
Vhttp://cdn.dota2.com/apps/dota2/images/heroes/storm_spirit_full.png
p124
sg8
Vnpc_dota_hero_storm_spirit
p125
sg10
Vhttp://cdn.dota2.com/apps/dota2/images/heroes/storm_spirit_sb.png
p126
sg12
Vhttp://cdn.dota2.com/apps/dota2/images/heroes/storm_spirit_lg.png
p127
sg14
Vhttp://cdn.dota2.com/apps/dota2/images/heroes/storm_spirit_vert.jpg
p128
sg16
I17
sa(dp129
g4
VSven
p130
sg6
Vhttp://cdn.dota2.com/apps/dota2/images/heroes/sven_full.png
p131
sg8
Vnpc_dota_hero_sven
p132
sg10
Vhttp://cdn.dota2.com/apps/dota2/images/heroes/sven_sb.png
p133
sg12
Vhttp://cdn.dota2.com/apps/dota2/images/heroes/sven_lg.png
p134
sg14
Vhttp://cdn.dota2.com/apps/dota2/images/heroes/sven_vert.jpg
p135
sg16
I18
sa(dp136
g4
VTiny
p137
sg6
Vhttp://cdn.dota2.com/apps/dota2/images/heroes/tiny_full.png
p138
sg8
Vnpc_dota_hero_tiny
p139
sg10
Vhttp://cdn.dota2.com/apps/dota2/images/heroes/tiny_sb.png
p140
sg12
Vhttp://cdn.dota2.com/apps/dota2/images/heroes/tiny_lg.png
p141
sg14
Vhttp://cdn.dota2.com/apps/dota2/images/heroes/tiny_vert.jpg
p142
sg16
I19
sa(dp143
g4
VVengeful Spirit
p144
sg6
Vhttp://cdn.dota2.com/apps/dota2/images/heroes/vengefulspirit_full.png
p145
sg8
Vnpc_dota_hero_vengefulspirit
p146
sg10
Vhttp://cdn.dota2.com/apps/dota2/images/heroes/vengefulspirit_sb.png
p147
sg12
Vhttp://cdn.dota2.com/apps/dota2/images/heroes/vengefulspirit_lg.png
p148
sg14
Vhttp://cdn.dota2.com/apps/dota2/images/heroes/vengefulspirit_vert.jpg
p149
sg16
I20
sa(dp150
g4
VWindranger
p151
sg6
Vhttp://cdn.dota2.com/apps/dota2/images/heroes/windrunner_full.png
p152
sg8
Vnpc_dota_hero_windrunner
p153
sg10
Vhttp://cdn.dota2.com/apps/dota2/images/heroes/windrunner_sb.png
p154
sg12
Vhttp://cdn.dota2.com/apps/dota2/images/heroes/windrunner_lg.png
p155
sg14
Vhttp://cdn.dota2.com/apps/dota2/images/heroes/windrunner_vert.jpg
p156
sg16
I21
sa(dp157
g4
VZeus
p158
sg6
Vhttp://cdn.dota2.com/apps/dota2/images/heroes/zuus_full.png
p159
sg8
Vnpc_dota_hero_zuus
p160
sg10
Vhttp://cdn.dota2.com/apps/dota2/images/heroes/zuus_sb.png
p161
sg12
Vhttp://cdn.dota2.com/apps/dota2/images/heroes/zuus_lg.png
p162
sg14
Vhttp://cdn.dota2.com/apps/dota2/images/heroes/zuus_vert.jpg
p163
sg16
I22
sa(dp164
g4
VKunkka
p165
sg6
Vhttp://cdn.dota2.com/apps/dota2/images/heroes/kunkka_full.png
p166
sg8
Vnpc_dota_hero_kunkka
p167
sg10
Vhttp://cdn.dota2.com/apps/dota2/images/heroes/kunkka_sb.png
p168
sg12
Vhttp://cdn.dota2.com/apps/dota2/images/heroes/kunkka_lg.png
p169
sg14
Vhttp://cdn.dota2.com/apps/dota2/images/heroes/kunkka_vert.jpg
p170
sg16
I23
sa(dp171
g4
VLina
p172
sg6
Vhttp://cdn.dota2.com/apps/dota2/images/heroes/lina_full.png
p173
sg8
Vnpc_dota_hero_lina
p174
sg10
Vhttp://cdn.dota2.com/apps/dota2/images/heroes/lina_sb.png
p175
sg12
Vhttp://cdn.dota2.com/apps/dota2/images/heroes/lina_lg.png
p176
sg14
Vhttp://cdn.dota2.com/apps/dota2/images/heroes/lina_vert.jpg
p177
sg16
I25
sa(dp178
g4
VLich
p179
sg6
Vhttp://cdn.dota2.com/apps/dota2/images/heroes/lich_full.png
p180
sg8
Vnpc_dota_hero_lich
p181
sg10
Vhttp://cdn.dota2.com/apps/dota2/images/heroes/lich_sb.png
p182
sg12
Vhttp://cdn.dota2.com/apps/dota2/images/heroes/lich_lg.png
p183
sg14
Vhttp://cdn.dota2.com/apps/dota2/images/heroes/lich_vert.jpg
p184
sg16
I31
sa(dp185
g4
VLion
p186
sg6
Vhttp://cdn.dota2.com/apps/dota2/images/heroes/lion_full.png
p187
sg8
Vnpc_dota_hero_lion
p188
sg10
Vhttp://cdn.dota2.com/apps/dota2/images/heroes/lion_sb.png
p189
sg12
Vhttp://cdn.dota2.com/apps/dota2/images/heroes/lion_lg.png
p190
sg14
Vhttp://cdn.dota2.com/apps/dota2/images/heroes/lion_vert.jpg
p191
sg16
I26
sa(dp192
g4
VShadow Shaman
p193
sg6
Vhttp://cdn.dota2.com/apps/dota2/images/heroes/shadow_shaman_full.png
p194
sg8
Vnpc_dota_hero_shadow_shaman
p195
sg10
Vhttp://cdn.dota2.com/apps/dota2/images/heroes/shadow_shaman_sb.png
p196
sg12
Vhttp://cdn.dota2.com/apps/dota2/images/heroes/shadow_shaman_lg.png
p197
sg14
Vhttp://cdn.dota2.com/apps/dota2/images/heroes/shadow_shaman_vert.jpg
p198
sg16
I27
sa(dp199
g4
VSlardar
p200
sg6
Vhttp://cdn.dota2.com/apps/dota2/images/heroes/slardar_full.png
p201
sg8
Vnpc_dota_hero_slardar
p202
sg10
Vhttp://cdn.dota2.com/apps/dota2/images/heroes/slardar_sb.png
p203
sg12
Vhttp://cdn.dota2.com/apps/dota2/images/heroes/slardar_lg.png
p204
sg14
Vhttp://cdn.dota2.com/apps/dota2/images/heroes/slardar_vert.jpg
p205
sg16
I28
sa(dp206
g4
VTidehunter
p207
sg6
Vhttp://cdn.dota2.com/apps/dota2/images/heroes/tidehunter_full.png
p208
sg8
Vnpc_dota_hero_tidehunter
p209
sg10
Vhttp://cdn.dota2.com/apps/dota2/images/heroes/tidehunter_sb.png
p210
sg12
Vhttp://cdn.dota2.com/apps/dota2/images/heroes/tidehunter_lg.png
p211
sg14
Vhttp://cdn.dota2.com/apps/dota2/images/heroes/tidehunter_vert.jpg
p212
sg16
I29
sa(dp213
g4
VWitch Doctor
p214
sg6
Vhttp://cdn.dota2.com/apps/dota2/images/heroes/witch_doctor_full.png
p215
sg8
Vnpc_dota_hero_witch_doctor
p216
sg10
Vhttp://cdn.dota2.com/apps/dota2/images/heroes/witch_doctor_sb.png
p217
sg12
Vhttp://cdn.dota2.com/apps/dota2/images/heroes/witch_doctor_lg.png
p218
sg14
Vhttp://cdn.dota2.com/apps/dota2/images/heroes/witch_doctor_vert.jpg
p219
sg16
I30
sa(dp220
g4
VRiki
p221
sg6
Vhttp://cdn.dota2.com/apps/dota2/images/heroes/riki_full.png
p222
sg8
Vnpc_dota_hero_riki
p223
sg10
Vhttp://cdn.dota2.com/apps/dota2/images/heroes/riki_sb.png
p224
sg12
Vhttp://cdn.dota2.com/apps/dota2/images/heroes/riki_lg.png
p225
sg14
Vhttp://cdn.dota2.com/apps/dota2/images/heroes/riki_vert.jpg
p226
sg16
I32
sa(dp227
g4
VEnigma
p228
sg6
Vhttp://cdn.dota2.com/apps/dota2/images/heroes/enigma_full.png
p229
sg8
Vnpc_dota_hero_enigma
p230
sg10
Vhttp://cdn.dota2.com/apps/dota2/images/heroes/enigma_sb.png
p231
sg12
Vhttp://cdn.dota2.com/apps/dota2/images/heroes/enigma_lg.png
p232
sg14
Vhttp://cdn.dota2.com/apps/dota2/images/heroes/enigma_vert.jpg
p233
sg16
I33
sa(dp234
g4
VTinker
p235
sg6
Vhttp://cdn.dota2.com/apps/dota2/images/heroes/tinker_full.png
p236
sg8
Vnpc_dota_hero_tinker
p237
sg10
Vhttp://cdn.dota2.com/apps/dota2/images/heroes/tinker_sb.png
p238
sg12
Vhttp://cdn.dota2.com/apps/dota2/images/heroes/tinker_lg.png
p239
sg14
Vhttp://cdn.dota2.com/apps/dota2/images/heroes/tinker_vert.jpg
p240
sg16
I34
sa(dp241
g4
VSniper
p242
sg6
Vhttp://cdn.dota2.com/apps/dota2/images/heroes/sniper_full.png
p243
sg8
Vnpc_dota_hero_sniper
p244
sg10
Vhttp://cdn.dota2.com/apps/dota2/images/heroes/sniper_sb.png
p245
sg12
Vhttp://cdn.dota2.com/apps/dota2/images/heroes/sniper_lg.png
p246
sg14
Vhttp://cdn.dota2.com/apps/dota2/images/heroes/sniper_vert.jpg
p247
sg16
I35
sa(dp248
g4
VNecrophos
p249
sg6
Vhttp://cdn.dota2.com/apps/dota2/images/heroes/necrolyte_full.png
p250
sg8
Vnpc_dota_hero_necrolyte
p251
sg10
Vhttp://cdn.dota2.com/apps/dota2/images/heroes/necrolyte_sb.png
p252
sg12
Vhttp://cdn.dota2.com/apps/dota2/images/heroes/necrolyte_lg.png
p253
sg14
Vhttp://cdn.dota2.com/apps/dota2/images/heroes/necrolyte_vert.jpg
p254
sg16
I36
sa(dp255
g4
VWarlock
p256
sg6
Vhttp://cdn.dota2.com/apps/dota2/images/heroes/warlock_full.png
p257
sg8
Vnpc_dota_hero_warlock
p258
sg10
Vhttp://cdn.dota2.com/apps/dota2/images/heroes/warlock_sb.png
p259
sg12
Vhttp://cdn.dota2.com/apps/dota2/images/heroes/warlock_lg.png
p260
sg14
Vhttp://cdn.dota2.com/apps/dota2/images/heroes/warlock_vert.jpg
p261
sg16
I37
sa(dp262
g4
VBeastmaster
p263
sg6
Vhttp://cdn.dota2.com/apps/dota2/images/heroes/beastmaster_full.png
p264
sg8
Vnpc_dota_hero_beastmaster
p265
sg10
Vhttp://cdn.dota2.com/apps/dota2/images/heroes/beastmaster_sb.png
p266
sg12
Vhttp://cdn.dota2.com/apps/dota2/images/heroes/beastmaster_lg.png
p267
sg14
Vhttp://cdn.dota2.com/apps/dota2/images/heroes/beastmaster_vert.jpg
p268
sg16
I38
sa(dp269
g4
VQueen of Pain
p270
sg6
Vhttp://cdn.dota2.com/apps/dota2/images/heroes/queenofpain_full.png
p271
sg8
Vnpc_dota_hero_queenofpain
p272
sg10
Vhttp://cdn.dota2.com/apps/dota2/images/heroes/queenofpain_sb.png
p273
sg12
Vhttp://cdn.dota2.com/apps/dota2/images/heroes/queenofpain_lg.png
p274
sg14
Vhttp://cdn.dota2.com/apps/dota2/images/heroes/queenofpain_vert.jpg
p275
sg16
I39
sa(dp276
g4
VVenomancer
p277
sg6
Vhttp://cdn.dota2.com/apps/dota2/images/heroes/venomancer_full.png
p278
sg8
Vnpc_dota_hero_venomancer
p279
sg10
Vhttp://cdn.dota2.com/apps/dota2/images/heroes/venomancer_sb.png
p280
sg12
Vhttp://cdn.dota2.com/apps/dota2/images/heroes/venomancer_lg.png
p281
sg14
Vhttp://cdn.dota2.com/apps/dota2/images/heroes/venomancer_vert.jpg
p282
sg16
I40
sa(dp283
g4
VFaceless Void
p284
sg6
Vhttp://cdn.dota2.com/apps/dota2/images/heroes/faceless_void_full.png
p285
sg8
Vnpc_dota_hero_faceless_void
p286
sg10
Vhttp://cdn.dota2.com/apps/dota2/images/heroes/faceless_void_sb.png
p287
sg12
Vhttp://cdn.dota2.com/apps/dota2/images/heroes/faceless_void_lg.png
p288
sg14
Vhttp://cdn.dota2.com/apps/dota2/images/heroes/faceless_void_vert.jpg
p289
sg16
I41
sa(dp290
g4
VWraith King
p291
sg6
Vhttp://cdn.dota2.com/apps/dota2/images/heroes/skeleton_king_full.png
p292
sg8
Vnpc_dota_hero_skeleton_king
p293
sg10
Vhttp://cdn.dota2.com/apps/dota2/images/heroes/skeleton_king_sb.png
p294
sg12
Vhttp://cdn.dota2.com/apps/dota2/images/heroes/skeleton_king_lg.png
p295
sg14
Vhttp://cdn.dota2.com/apps/dota2/images/heroes/skeleton_king_vert.jpg
p296
sg16
I42
sa(dp297
g4
VDeath Prophet
p298
sg6
Vhttp://cdn.dota2.com/apps/dota2/images/heroes/death_prophet_full.png
p299
sg8
Vnpc_dota_hero_death_prophet
p300
sg10
Vhttp://cdn.dota2.com/apps/dota2/images/heroes/death_prophet_sb.png
p301
sg12
Vhttp://cdn.dota2.com/apps/dota2/images/heroes/death_prophet_lg.png
p302
sg14
Vhttp://cdn.dota2.com/apps/dota2/images/heroes/death_prophet_vert.jpg
p303
sg16
I43
sa(dp304
g4
VPhantom Assassin
p305
sg6
Vhttp://cdn.dota2.com/apps/dota2/images/heroes/phantom_assassin_full.png
p306
sg8
Vnpc_dota_hero_phantom_assassin
p307
sg10
Vhttp://cdn.dota2.com/apps/dota2/images/heroes/phantom_assassin_sb.png
p308
sg12
Vhttp://cdn.dota2.com/apps/dota2/images/heroes/phantom_assassin_lg.png
p309
sg14
Vhttp://cdn.dota2.com/apps/dota2/images/heroes/phantom_assassin_vert.jpg
p310
sg16
I44
sa(dp311
g4
VPugna
p312
sg6
Vhttp://cdn.dota2.com/apps/dota2/images/heroes/pugna_full.png
p313
sg8
Vnpc_dota_hero_pugna
p314
sg10
Vhttp://cdn.dota2.com/apps/dota2/images/heroes/pugna_sb.png
p315
sg12
Vhttp://cdn.dota2.com/apps/dota2/images/heroes/pugna_lg.png
p316
sg14
Vhttp://cdn.dota2.com/apps/dota2/images/heroes/pugna_vert.jpg
p317
sg16
I45
sa(dp318
g4
VTemplar Assassin
p319
sg6
Vhttp://cdn.dota2.com/apps/dota2/images/heroes/templar_assassin_full.png
p320
sg8
Vnpc_dota_hero_templar_assassin
p321
sg10
Vhttp://cdn.dota2.com/apps/dota2/images/heroes/templar_assassin_sb.png
p322
sg12
Vhttp://cdn.dota2.com/apps/dota2/images/heroes/templar_assassin_lg.png
p323
sg14
Vhttp://cdn.dota2.com/apps/dota2/images/heroes/templar_assassin_vert.jpg
p324
sg16
I46
sa(dp325
g4
VViper
p326
sg6
Vhttp://cdn.dota2.com/apps/dota2/images/heroes/viper_full.png
p327
sg8
Vnpc_dota_hero_viper
p328
sg10
Vhttp://cdn.dota2.com/apps/dota2/images/heroes/viper_sb.png
p329
sg12
Vhttp://cdn.dota2.com/apps/dota2/images/heroes/viper_lg.png
p330
sg14
Vhttp://cdn.dota2.com/apps/dota2/images/heroes/viper_vert.jpg
p331
sg16
I47
sa(dp332
g4
VLuna
p333
sg6
Vhttp://cdn.dota2.com/apps/dota2/images/heroes/luna_full.png
p334
sg8
Vnpc_dota_hero_luna
p335
sg10
Vhttp://cdn.dota2.com/apps/dota2/images/heroes/luna_sb.png
p336
sg12
Vhttp://cdn.dota2.com/apps/dota2/images/heroes/luna_lg.png
p337
sg14
Vhttp://cdn.dota2.com/apps/dota2/images/heroes/luna_vert.jpg
p338
sg16
I48
sa(dp339
g4
VDragon Knight
p340
sg6
Vhttp://cdn.dota2.com/apps/dota2/images/heroes/dragon_knight_full.png
p341
sg8
Vnpc_dota_hero_dragon_knight
p342
sg10
Vhttp://cdn.dota2.com/apps/dota2/images/heroes/dragon_knight_sb.png
p343
sg12
Vhttp://cdn.dota2.com/apps/dota2/images/heroes/dragon_knight_lg.png
p344
sg14
Vhttp://cdn.dota2.com/apps/dota2/images/heroes/dragon_knight_vert.jpg
p345
sg16
I49
sa(dp346
g4
VDazzle
p347
sg6
Vhttp://cdn.dota2.com/apps/dota2/images/heroes/dazzle_full.png
p348
sg8
Vnpc_dota_hero_dazzle
p349
sg10
Vhttp://cdn.dota2.com/apps/dota2/images/heroes/dazzle_sb.png
p350
sg12
Vhttp://cdn.dota2.com/apps/dota2/images/heroes/dazzle_lg.png
p351
sg14
Vhttp://cdn.dota2.com/apps/dota2/images/heroes/dazzle_vert.jpg
p352
sg16
I50
sa(dp353
g4
VClockwerk
p354
sg6
Vhttp://cdn.dota2.com/apps/dota2/images/heroes/rattletrap_full.png
p355
sg8
Vnpc_dota_hero_rattletrap
p356
sg10
Vhttp://cdn.dota2.com/apps/dota2/images/heroes/rattletrap_sb.png
p357
sg12
Vhttp://cdn.dota2.com/apps/dota2/images/heroes/rattletrap_lg.png
p358
sg14
Vhttp://cdn.dota2.com/apps/dota2/images/heroes/rattletrap_vert.jpg
p359
sg16
I51
sa(dp360
g4
VLeshrac
p361
sg6
Vhttp://cdn.dota2.com/apps/dota2/images/heroes/leshrac_full.png
p362
sg8
Vnpc_dota_hero_leshrac
p363
sg10
Vhttp://cdn.dota2.com/apps/dota2/images/heroes/leshrac_sb.png
p364
sg12
Vhttp://cdn.dota2.com/apps/dota2/images/heroes/leshrac_lg.png
p365
sg14
Vhttp://cdn.dota2.com/apps/dota2/images/heroes/leshrac_vert.jpg
p366
sg16
I52
sa(dp367
g4
VNature's Prophet
p368
sg6
Vhttp://cdn.dota2.com/apps/dota2/images/heroes/furion_full.png
p369
sg8
Vnpc_dota_hero_furion
p370
sg10
Vhttp://cdn.dota2.com/apps/dota2/images/heroes/furion_sb.png
p371
sg12
Vhttp://cdn.dota2.com/apps/dota2/images/heroes/furion_lg.png
p372
sg14
Vhttp://cdn.dota2.com/apps/dota2/images/heroes/furion_vert.jpg
p373
sg16
I53
sa(dp374
g4
VLifestealer
p375
sg6
Vhttp://cdn.dota2.com/apps/dota2/images/heroes/life_stealer_full.png
p376
sg8
Vnpc_dota_hero_life_stealer
p377
sg10
Vhttp://cdn.dota2.com/apps/dota2/images/heroes/life_stealer_sb.png
p378
sg12
Vhttp://cdn.dota2.com/apps/dota2/images/heroes/life_stealer_lg.png
p379
sg14
Vhttp://cdn.dota2.com/apps/dota2/images/heroes/life_stealer_vert.jpg
p380
sg16
I54
sa(dp381
g4
VDark Seer
p382
sg6
Vhttp://cdn.dota2.com/apps/dota2/images/heroes/dark_seer_full.png
p383
sg8
Vnpc_dota_hero_dark_seer
p384
sg10
Vhttp://cdn.dota2.com/apps/dota2/images/heroes/dark_seer_sb.png
p385
sg12
Vhttp://cdn.dota2.com/apps/dota2/images/heroes/dark_seer_lg.png
p386
sg14
Vhttp://cdn.dota2.com/apps/dota2/images/heroes/dark_seer_vert.jpg
p387
sg16
I55
sa(dp388
g4
VClinkz
p389
sg6
Vhttp://cdn.dota2.com/apps/dota2/images/heroes/clinkz_full.png
p390
sg8
Vnpc_dota_hero_clinkz
p391
sg10
Vhttp://cdn.dota2.com/apps/dota2/images/heroes/clinkz_sb.png
p392
sg12
Vhttp://cdn.dota2.com/apps/dota2/images/heroes/clinkz_lg.png
p393
sg14
Vhttp://cdn.dota2.com/apps/dota2/images/heroes/clinkz_vert.jpg
p394
sg16
I56
sa(dp395
g4
VOmniknight
p396
sg6
Vhttp://cdn.dota2.com/apps/dota2/images/heroes/omniknight_full.png
p397
sg8
Vnpc_dota_hero_omniknight
p398
sg10
Vhttp://cdn.dota2.com/apps/dota2/images/heroes/omniknight_sb.png
p399
sg12
Vhttp://cdn.dota2.com/apps/dota2/images/heroes/omniknight_lg.png
p400
sg14
Vhttp://cdn.dota2.com/apps/dota2/images/heroes/omniknight_vert.jpg
p401
sg16
I57
sa(dp402
g4
VEnchantress
p403
sg6
Vhttp://cdn.dota2.com/apps/dota2/images/heroes/enchantress_full.png
p404
sg8
Vnpc_dota_hero_enchantress
p405
sg10
Vhttp://cdn.dota2.com/apps/dota2/images/heroes/enchantress_sb.png
p406
sg12
Vhttp://cdn.dota2.com/apps/dota2/images/heroes/enchantress_lg.png
p407
sg14
Vhttp://cdn.dota2.com/apps/dota2/images/heroes/enchantress_vert.jpg
p408
sg16
I58
sa(dp409
g4
VHuskar
p410
sg6
Vhttp://cdn.dota2.com/apps/dota2/images/heroes/huskar_full.png
p411
sg8
Vnpc_dota_hero_huskar
p412
sg10
Vhttp://cdn.dota2.com/apps/dota2/images/heroes/huskar_sb.png
p413
sg12
Vhttp://cdn.dota2.com/apps/dota2/images/heroes/huskar_lg.png
p414
sg14
Vhttp://cdn.dota2.com/apps/dota2/images/heroes/huskar_vert.jpg
p415
sg16
I59
sa(dp416
g4
VNight Stalker
p417
sg6
Vhttp://cdn.dota2.com/apps/dota2/images/heroes/night_stalker_full.png
p418
sg8
Vnpc_dota_hero_night_stalker
p419
sg10
Vhttp://cdn.dota2.com/apps/dota2/images/heroes/night_stalker_sb.png
p420
sg12
Vhttp://cdn.dota2.com/apps/dota2/images/heroes/night_stalker_lg.png
p421
sg14
Vhttp://cdn.dota2.com/apps/dota2/images/heroes/night_stalker_vert.jpg
p422
sg16
I60
sa(dp423
g4
VBroodmother
p424
sg6
Vhttp://cdn.dota2.com/apps/dota2/images/heroes/broodmother_full.png
p425
sg8
Vnpc_dota_hero_broodmother
p426
sg10
Vhttp://cdn.dota2.com/apps/dota2/images/heroes/broodmother_sb.png
p427
sg12
Vhttp://cdn.dota2.com/apps/dota2/images/heroes/broodmother_lg.png
p428
sg14
Vhttp://cdn.dota2.com/apps/dota2/images/heroes/broodmother_vert.jpg
p429
sg16
I61
sa(dp430
g4
VBounty Hunter
p431
sg6
Vhttp://cdn.dota2.com/apps/dota2/images/heroes/bounty_hunter_full.png
p432
sg8
Vnpc_dota_hero_bounty_hunter
p433
sg10
Vhttp://cdn.dota2.com/apps/dota2/images/heroes/bounty_hunter_sb.png
p434
sg12
Vhttp://cdn.dota2.com/apps/dota2/images/heroes/bounty_hunter_lg.png
p435
sg14
Vhttp://cdn.dota2.com/apps/dota2/images/heroes/bounty_hunter_vert.jpg
p436
sg16
I62
sa(dp437
g4
VWeaver
p438
sg6
Vhttp://cdn.dota2.com/apps/dota2/images/heroes/weaver_full.png
p439
sg8
Vnpc_dota_hero_weaver
p440
sg10
Vhttp://cdn.dota2.com/apps/dota2/images/heroes/weaver_sb.png
p441
sg12
Vhttp://cdn.dota2.com/apps/dota2/images/heroes/weaver_lg.png
p442
sg14
Vhttp://cdn.dota2.com/apps/dota2/images/heroes/weaver_vert.jpg
p443
sg16
I63
sa(dp444
g4
VJakiro
p445
sg6
Vhttp://cdn.dota2.com/apps/dota2/images/heroes/jakiro_full.png
p446
sg8
Vnpc_dota_hero_jakiro
p447
sg10
Vhttp://cdn.dota2.com/apps/dota2/images/heroes/jakiro_sb.png
p448
sg12
Vhttp://cdn.dota2.com/apps/dota2/images/heroes/jakiro_lg.png
p449
sg14
Vhttp://cdn.dota2.com/apps/dota2/images/heroes/jakiro_vert.jpg
p450
sg16
I64
sa(dp451
g4
VBatrider
p452
sg6
Vhttp://cdn.dota2.com/apps/dota2/images/heroes/batrider_full.png
p453
sg8
Vnpc_dota_hero_batrider
p454
sg10
Vhttp://cdn.dota2.com/apps/dota2/images/heroes/batrider_sb.png
p455
sg12
Vhttp://cdn.dota2.com/apps/dota2/images/heroes/batrider_lg.png
p456
sg14
Vhttp://cdn.dota2.com/apps/dota2/images/heroes/batrider_vert.jpg
p457
sg16
I65
sa(dp458
g4
VChen
p459
sg6
Vhttp://cdn.dota2.com/apps/dota2/images/heroes/chen_full.png
p460
sg8
Vnpc_dota_hero_chen
p461
sg10
Vhttp://cdn.dota2.com/apps/dota2/images/heroes/chen_sb.png
p462
sg12
Vhttp://cdn.dota2.com/apps/dota2/images/heroes/chen_lg.png
p463
sg14
Vhttp://cdn.dota2.com/apps/dota2/images/heroes/chen_vert.jpg
p464
sg16
I66
sa(dp465
g4
VSpectre
p466
sg6
Vhttp://cdn.dota2.com/apps/dota2/images/heroes/spectre_full.png
p467
sg8
Vnpc_dota_hero_spectre
p468
sg10
Vhttp://cdn.dota2.com/apps/dota2/images/heroes/spectre_sb.png
p469
sg12
Vhttp://cdn.dota2.com/apps/dota2/images/heroes/spectre_lg.png
p470
sg14
Vhttp://cdn.dota2.com/apps/dota2/images/heroes/spectre_vert.jpg
p471
sg16
I67
sa(dp472
g4
VDoom
p473
sg6
Vhttp://cdn.dota2.com/apps/dota2/images/heroes/doom_bringer_full.png
p474
sg8
Vnpc_dota_hero_doom_bringer
p475
sg10
Vhttp://cdn.dota2.com/apps/dota2/images/heroes/doom_bringer_sb.png
p476
sg12
Vhttp://cdn.dota2.com/apps/dota2/images/heroes/doom_bringer_lg.png
p477
sg14
Vhttp://cdn.dota2.com/apps/dota2/images/heroes/doom_bringer_vert.jpg
p478
sg16
I69
sa(dp479
g4
VAncient Apparition
p480
sg6
Vhttp://cdn.dota2.com/apps/dota2/images/heroes/ancient_apparition_full.png
p481
sg8
Vnpc_dota_hero_ancient_apparition
p482
sg10
Vhttp://cdn.dota2.com/apps/dota2/images/heroes/ancient_apparition_sb.png
p483
sg12
Vhttp://cdn.dota2.com/apps/dota2/images/heroes/ancient_apparition_lg.png
p484
sg14
Vhttp://cdn.dota2.com/apps/dota2/images/heroes/ancient_apparition_vert.jpg
p485
sg16
I68
sa(dp486
g4
VUrsa
p487
sg6
Vhttp://cdn.dota2.com/apps/dota2/images/heroes/ursa_full.png
p488
sg8
Vnpc_dota_hero_ursa
p489
sg10
Vhttp://cdn.dota2.com/apps/dota2/images/heroes/ursa_sb.png
p490
sg12
Vhttp://cdn.dota2.com/apps/dota2/images/heroes/ursa_lg.png
p491
sg14
Vhttp://cdn.dota2.com/apps/dota2/images/heroes/ursa_vert.jpg
p492
sg16
I70
sa(dp493
g4
VSpirit Breaker
p494
sg6
Vhttp://cdn.dota2.com/apps/dota2/images/heroes/spirit_breaker_full.png
p495
sg8
Vnpc_dota_hero_spirit_breaker
p496
sg10
Vhttp://cdn.dota2.com/apps/dota2/images/heroes/spirit_breaker_sb.png
p497
sg12
Vhttp://cdn.dota2.com/apps/dota2/images/heroes/spirit_breaker_lg.png
p498
sg14
Vhttp://cdn.dota2.com/apps/dota2/images/heroes/spirit_breaker_vert.jpg
p499
sg16
I71
sa(dp500
g4
VGyrocopter
p501
sg6
Vhttp://cdn.dota2.com/apps/dota2/images/heroes/gyrocopter_full.png
p502
sg8
Vnpc_dota_hero_gyrocopter
p503
sg10
Vhttp://cdn.dota2.com/apps/dota2/images/heroes/gyrocopter_sb.png
p504
sg12
Vhttp://cdn.dota2.com/apps/dota2/images/heroes/gyrocopter_lg.png
p505
sg14
Vhttp://cdn.dota2.com/apps/dota2/images/heroes/gyrocopter_vert.jpg
p506
sg16
I72
sa(dp507
g4
VAlchemist
p508
sg6
Vhttp://cdn.dota2.com/apps/dota2/images/heroes/alchemist_full.png
p509
sg8
Vnpc_dota_hero_alchemist
p510
sg10
Vhttp://cdn.dota2.com/apps/dota2/images/heroes/alchemist_sb.png
p511
sg12
Vhttp://cdn.dota2.com/apps/dota2/images/heroes/alchemist_lg.png
p512
sg14
Vhttp://cdn.dota2.com/apps/dota2/images/heroes/alchemist_vert.jpg
p513
sg16
I73
sa(dp514
g4
VInvoker
p515
sg6
Vhttp://cdn.dota2.com/apps/dota2/images/heroes/invoker_full.png
p516
sg8
Vnpc_dota_hero_invoker
p517
sg10
Vhttp://cdn.dota2.com/apps/dota2/images/heroes/invoker_sb.png
p518
sg12
Vhttp://cdn.dota2.com/apps/dota2/images/heroes/invoker_lg.png
p519
sg14
Vhttp://cdn.dota2.com/apps/dota2/images/heroes/invoker_vert.jpg
p520
sg16
I74
sa(dp521
g4
VSilencer
p522
sg6
Vhttp://cdn.dota2.com/apps/dota2/images/heroes/silencer_full.png
p523
sg8
Vnpc_dota_hero_silencer
p524
sg10
Vhttp://cdn.dota2.com/apps/dota2/images/heroes/silencer_sb.png
p525
sg12
Vhttp://cdn.dota2.com/apps/dota2/images/heroes/silencer_lg.png
p526
sg14
Vhttp://cdn.dota2.com/apps/dota2/images/heroes/silencer_vert.jpg
p527
sg16
I75
sa(dp528
g4
VOutworld Devourer
p529
sg6
Vhttp://cdn.dota2.com/apps/dota2/images/heroes/obsidian_destroyer_full.png
p530
sg8
Vnpc_dota_hero_obsidian_destroyer
p531
sg10
Vhttp://cdn.dota2.com/apps/dota2/images/heroes/obsidian_destroyer_sb.png
p532
sg12
Vhttp://cdn.dota2.com/apps/dota2/images/heroes/obsidian_destroyer_lg.png
p533
sg14
Vhttp://cdn.dota2.com/apps/dota2/images/heroes/obsidian_destroyer_vert.jpg
p534
sg16
I76
sa(dp535
g4
VLycan
p536
sg6
Vhttp://cdn.dota2.com/apps/dota2/images/heroes/lycan_full.png
p537
sg8
Vnpc_dota_hero_lycan
p538
sg10
Vhttp://cdn.dota2.com/apps/dota2/images/heroes/lycan_sb.png
p539
sg12
Vhttp://cdn.dota2.com/apps/dota2/images/heroes/lycan_lg.png
p540
sg14
Vhttp://cdn.dota2.com/apps/dota2/images/heroes/lycan_vert.jpg
p541
sg16
I77
sa(dp542
g4
VBrewmaster
p543
sg6
Vhttp://cdn.dota2.com/apps/dota2/images/heroes/brewmaster_full.png
p544
sg8
Vnpc_dota_hero_brewmaster
p545
sg10
Vhttp://cdn.dota2.com/apps/dota2/images/heroes/brewmaster_sb.png
p546
sg12
Vhttp://cdn.dota2.com/apps/dota2/images/heroes/brewmaster_lg.png
p547
sg14
Vhttp://cdn.dota2.com/apps/dota2/images/heroes/brewmaster_vert.jpg
p548
sg16
I78
sa(dp549
g4
VShadow Demon
p550
sg6
Vhttp://cdn.dota2.com/apps/dota2/images/heroes/shadow_demon_full.png
p551
sg8
Vnpc_dota_hero_shadow_demon
p552
sg10
Vhttp://cdn.dota2.com/apps/dota2/images/heroes/shadow_demon_sb.png
p553
sg12
Vhttp://cdn.dota2.com/apps/dota2/images/heroes/shadow_demon_lg.png
p554
sg14
Vhttp://cdn.dota2.com/apps/dota2/images/heroes/shadow_demon_vert.jpg
p555
sg16
I79
sa(dp556
g4
VLone Druid
p557
sg6
Vhttp://cdn.dota2.com/apps/dota2/images/heroes/lone_druid_full.png
p558
sg8
Vnpc_dota_hero_lone_druid
p559
sg10
Vhttp://cdn.dota2.com/apps/dota2/images/heroes/lone_druid_sb.png
p560
sg12
Vhttp://cdn.dota2.com/apps/dota2/images/heroes/lone_druid_lg.png
p561
sg14
Vhttp://cdn.dota2.com/apps/dota2/images/heroes/lone_druid_vert.jpg
p562
sg16
I80
sa(dp563
g4
VChaos Knight
p564
sg6
Vhttp://cdn.dota2.com/apps/dota2/images/heroes/chaos_knight_full.png
p565
sg8
Vnpc_dota_hero_chaos_knight
p566
sg10
Vhttp://cdn.dota2.com/apps/dota2/images/heroes/chaos_knight_sb.png
p567
sg12
Vhttp://cdn.dota2.com/apps/dota2/images/heroes/chaos_knight_lg.png
p568
sg14
Vhttp://cdn.dota2.com/apps/dota2/images/heroes/chaos_knight_vert.jpg
p569
sg16
I81
sa(dp570
g4
VMeepo
p571
sg6
Vhttp://cdn.dota2.com/apps/dota2/images/heroes/meepo_full.png
p572
sg8
Vnpc_dota_hero_meepo
p573
sg10
Vhttp://cdn.dota2.com/apps/dota2/images/heroes/meepo_sb.png
p574
sg12
Vhttp://cdn.dota2.com/apps/dota2/images/heroes/meepo_lg.png
p575
sg14
Vhttp://cdn.dota2.com/apps/dota2/images/heroes/meepo_vert.jpg
p576
sg16
I82
sa(dp577
g4
VTreant Protector
p578
sg6
Vhttp://cdn.dota2.com/apps/dota2/images/heroes/treant_full.png
p579
sg8
Vnpc_dota_hero_treant
p580
sg10
Vhttp://cdn.dota2.com/apps/dota2/images/heroes/treant_sb.png
p581
sg12
Vhttp://cdn.dota2.com/apps/dota2/images/heroes/treant_lg.png
p582
sg14
Vhttp://cdn.dota2.com/apps/dota2/images/heroes/treant_vert.jpg
p583
sg16
I83
sa(dp584
g4
VOgre Magi
p585
sg6
Vhttp://cdn.dota2.com/apps/dota2/images/heroes/ogre_magi_full.png
p586
sg8
Vnpc_dota_hero_ogre_magi
p587
sg10
Vhttp://cdn.dota2.com/apps/dota2/images/heroes/ogre_magi_sb.png
p588
sg12
Vhttp://cdn.dota2.com/apps/dota2/images/heroes/ogre_magi_lg.png
p589
sg14
Vhttp://cdn.dota2.com/apps/dota2/images/heroes/ogre_magi_vert.jpg
p590
sg16
I84
sa(dp591
g4
VUndying
p592
sg6
Vhttp://cdn.dota2.com/apps/dota2/images/heroes/undying_full.png
p593
sg8
Vnpc_dota_hero_undying
p594
sg10
Vhttp://cdn.dota2.com/apps/dota2/images/heroes/undying_sb.png
p595
sg12
Vhttp://cdn.dota2.com/apps/dota2/images/heroes/undying_lg.png
p596
sg14
Vhttp://cdn.dota2.com/apps/dota2/images/heroes/undying_vert.jpg
p597
sg16
I85
sa(dp598
g4
VRubick
p599
sg6
Vhttp://cdn.dota2.com/apps/dota2/images/heroes/rubick_full.png
p600
sg8
Vnpc_dota_hero_rubick
p601
sg10
Vhttp://cdn.dota2.com/apps/dota2/images/heroes/rubick_sb.png
p602
sg12
Vhttp://cdn.dota2.com/apps/dota2/images/heroes/rubick_lg.png
p603
sg14
Vhttp://cdn.dota2.com/apps/dota2/images/heroes/rubick_vert.jpg
p604
sg16
I86
sa(dp605
g4
VDisruptor
p606
sg6
Vhttp://cdn.dota2.com/apps/dota2/images/heroes/disruptor_full.png
p607
sg8
Vnpc_dota_hero_disruptor
p608
sg10
Vhttp://cdn.dota2.com/apps/dota2/images/heroes/disruptor_sb.png
p609
sg12
Vhttp://cdn.dota2.com/apps/dota2/images/heroes/disruptor_lg.png
p610
sg14
Vhttp://cdn.dota2.com/apps/dota2/images/heroes/disruptor_vert.jpg
p611
sg16
I87
sa(dp612
g4
VNyx Assassin
p613
sg6
Vhttp://cdn.dota2.com/apps/dota2/images/heroes/nyx_assassin_full.png
p614
sg8
Vnpc_dota_hero_nyx_assassin
p615
sg10
Vhttp://cdn.dota2.com/apps/dota2/images/heroes/nyx_assassin_sb.png
p616
sg12
Vhttp://cdn.dota2.com/apps/dota2/images/heroes/nyx_assassin_lg.png
p617
sg14
Vhttp://cdn.dota2.com/apps/dota2/images/heroes/nyx_assassin_vert.jpg
p618
sg16
I88
sa(dp619
g4
VNaga Siren
p620
sg6
Vhttp://cdn.dota2.com/apps/dota2/images/heroes/naga_siren_full.png
p621
sg8
Vnpc_dota_hero_naga_siren
p622
sg10
Vhttp://cdn.dota2.com/apps/dota2/images/heroes/naga_siren_sb.png
p623
sg12
Vhttp://cdn.dota2.com/apps/dota2/images/heroes/naga_siren_lg.png
p624
sg14
Vhttp://cdn.dota2.com/apps/dota2/images/heroes/naga_siren_vert.jpg
p625
sg16
I89
sa(dp626
g4
VKeeper of the Light
p627
sg6
Vhttp://cdn.dota2.com/apps/dota2/images/heroes/keeper_of_the_light_full.png
p628
sg8
Vnpc_dota_hero_keeper_of_the_light
p629
sg10
Vhttp://cdn.dota2.com/apps/dota2/images/heroes/keeper_of_the_light_sb.png
p630
sg12
Vhttp://cdn.dota2.com/apps/dota2/images/heroes/keeper_of_the_light_lg.png
p631
sg14
Vhttp://cdn.dota2.com/apps/dota2/images/heroes/keeper_of_the_light_vert.jpg
p632
sg16
I90
sa(dp633
g4
VIo
p634
sg6
Vhttp://cdn.dota2.com/apps/dota2/images/heroes/wisp_full.png
p635
sg8
Vnpc_dota_hero_wisp
p636
sg10
Vhttp://cdn.dota2.com/apps/dota2/images/heroes/wisp_sb.png
p637
sg12
Vhttp://cdn.dota2.com/apps/dota2/images/heroes/wisp_lg.png
p638
sg14
Vhttp://cdn.dota2.com/apps/dota2/images/heroes/wisp_vert.jpg
p639
sg16
I91
sa(dp640
g4
VVisage
p641
sg6
Vhttp://cdn.dota2.com/apps/dota2/images/heroes/visage_full.png
p642
sg8
Vnpc_dota_hero_visage
p643
sg10
Vhttp://cdn.dota2.com/apps/dota2/images/heroes/visage_sb.png
p644
sg12
Vhttp://cdn.dota2.com/apps/dota2/images/heroes/visage_lg.png
p645
sg14
Vhttp://cdn.dota2.com/apps/dota2/images/heroes/visage_vert.jpg
p646
sg16
I92
sa(dp647
g4
VSlark
p648
sg6
Vhttp://cdn.dota2.com/apps/dota2/images/heroes/slark_full.png
p649
sg8
Vnpc_dota_hero_slark
p650
sg10
Vhttp://cdn.dota2.com/apps/dota2/images/heroes/slark_sb.png
p651
sg12
Vhttp://cdn.dota2.com/apps/dota2/images/heroes/slark_lg.png
p652
sg14
Vhttp://cdn.dota2.com/apps/dota2/images/heroes/slark_vert.jpg
p653
sg16
I93
sa(dp654
g4
VMedusa
p655
sg6
Vhttp://cdn.dota2.com/apps/dota2/images/heroes/medusa_full.png
p656
sg8
Vnpc_dota_hero_medusa
p657
sg10
Vhttp://cdn.dota2.com/apps/dota2/images/heroes/medusa_sb.png
p658
sg12
Vhttp://cdn.dota2.com/apps/dota2/images/heroes/medusa_lg.png
p659
sg14
Vhttp://cdn.dota2.com/apps/dota2/images/heroes/medusa_vert.jpg
p660
sg16
I94
sa(dp661
g4
VTroll Warlord
p662
sg6
Vhttp://cdn.dota2.com/apps/dota2/images/heroes/troll_warlord_full.png
p663
sg8
Vnpc_dota_hero_troll_warlord
p664
sg10
Vhttp://cdn.dota2.com/apps/dota2/images/heroes/troll_warlord_sb.png
p665
sg12
Vhttp://cdn.dota2.com/apps/dota2/images/heroes/troll_warlord_lg.png
p666
sg14
Vhttp://cdn.dota2.com/apps/dota2/images/heroes/troll_warlord_vert.jpg
p667
sg16
I95
sa(dp668
g4
VCentaur Warrunner
p669
sg6
Vhttp://cdn.dota2.com/apps/dota2/images/heroes/centaur_full.png
p670
sg8
Vnpc_dota_hero_centaur
p671
sg10
Vhttp://cdn.dota2.com/apps/dota2/images/heroes/centaur_sb.png
p672
sg12
Vhttp://cdn.dota2.com/apps/dota2/images/heroes/centaur_lg.png
p673
sg14
Vhttp://cdn.dota2.com/apps/dota2/images/heroes/centaur_vert.jpg
p674
sg16
I96
sa(dp675
g4
VMagnus
p676
sg6
Vhttp://cdn.dota2.com/apps/dota2/images/heroes/magnataur_full.png
p677
sg8
Vnpc_dota_hero_magnataur
p678
sg10
Vhttp://cdn.dota2.com/apps/dota2/images/heroes/magnataur_sb.png
p679
sg12
Vhttp://cdn.dota2.com/apps/dota2/images/heroes/magnataur_lg.png
p680
sg14
Vhttp://cdn.dota2.com/apps/dota2/images/heroes/magnataur_vert.jpg
p681
sg16
I97
sa(dp682
g4
VTimbersaw
p683
sg6
Vhttp://cdn.dota2.com/apps/dota2/images/heroes/shredder_full.png
p684
sg8
Vnpc_dota_hero_shredder
p685
sg10
Vhttp://cdn.dota2.com/apps/dota2/images/heroes/shredder_sb.png
p686
sg12
Vhttp://cdn.dota2.com/apps/dota2/images/heroes/shredder_lg.png
p687
sg14
Vhttp://cdn.dota2.com/apps/dota2/images/heroes/shredder_vert.jpg
p688
sg16
I98
sa(dp689
g4
VBristleback
p690
sg6
Vhttp://cdn.dota2.com/apps/dota2/images/heroes/bristleback_full.png
p691
sg8
Vnpc_dota_hero_bristleback
p692
sg10
Vhttp://cdn.dota2.com/apps/dota2/images/heroes/bristleback_sb.png
p693
sg12
Vhttp://cdn.dota2.com/apps/dota2/images/heroes/bristleback_lg.png
p694
sg14
Vhttp://cdn.dota2.com/apps/dota2/images/heroes/bristleback_vert.jpg
p695
sg16
I99
sa(dp696
g4
VTusk
p697
sg6
Vhttp://cdn.dota2.com/apps/dota2/images/heroes/tusk_full.png
p698
sg8
Vnpc_dota_hero_tusk
p699
sg10
Vhttp://cdn.dota2.com/apps/dota2/images/heroes/tusk_sb.png
p700
sg12
Vhttp://cdn.dota2.com/apps/dota2/images/heroes/tusk_lg.png
p701
sg14
Vhttp://cdn.dota2.com/apps/dota2/images/heroes/tusk_vert.jpg
p702
sg16
I100
sa(dp703
g4
VSkywrath Mage
p704
sg6
Vhttp://cdn.dota2.com/apps/dota2/images/heroes/skywrath_mage_full.png
p705
sg8
Vnpc_dota_hero_skywrath_mage
p706
sg10
Vhttp://cdn.dota2.com/apps/dota2/images/heroes/skywrath_mage_sb.png
p707
sg12
Vhttp://cdn.dota2.com/apps/dota2/images/heroes/skywrath_mage_lg.png
p708
sg14
Vhttp://cdn.dota2.com/apps/dota2/images/heroes/skywrath_mage_vert.jpg
p709
sg16
I101
sa(dp710
g4
VAbaddon
p711
sg6
Vhttp://cdn.dota2.com/apps/dota2/images/heroes/abaddon_full.png
p712
sg8
Vnpc_dota_hero_abaddon
p713
sg10
Vhttp://cdn.dota2.com/apps/dota2/images/heroes/abaddon_sb.png
p714
sg12
Vhttp://cdn.dota2.com/apps/dota2/images/heroes/abaddon_lg.png
p715
sg14
Vhttp://cdn.dota2.com/apps/dota2/images/heroes/abaddon_vert.jpg
p716
sg16
I102
sa(dp717
g4
VElder Titan
p718
sg6
Vhttp://cdn.dota2.com/apps/dota2/images/heroes/elder_titan_full.png
p719
sg8
Vnpc_dota_hero_elder_titan
p720
sg10
Vhttp://cdn.dota2.com/apps/dota2/images/heroes/elder_titan_sb.png
p721
sg12
Vhttp://cdn.dota2.com/apps/dota2/images/heroes/elder_titan_lg.png
p722
sg14
Vhttp://cdn.dota2.com/apps/dota2/images/heroes/elder_titan_vert.jpg
p723
sg16
I103
sa(dp724
g4
VLegion Commander
p725
sg6
Vhttp://cdn.dota2.com/apps/dota2/images/heroes/legion_commander_full.png
p726
sg8
Vnpc_dota_hero_legion_commander
p727
sg10
Vhttp://cdn.dota2.com/apps/dota2/images/heroes/legion_commander_sb.png
p728
sg12
Vhttp://cdn.dota2.com/apps/dota2/images/heroes/legion_commander_lg.png
p729
sg14
Vhttp://cdn.dota2.com/apps/dota2/images/heroes/legion_commander_vert.jpg
p730
sg16
I104
sa(dp731
g4
VEmber Spirit
p732
sg6
Vhttp://cdn.dota2.com/apps/dota2/images/heroes/ember_spirit_full.png
p733
sg8
Vnpc_dota_hero_ember_spirit
p734
sg10
Vhttp://cdn.dota2.com/apps/dota2/images/heroes/ember_spirit_sb.png
p735
sg12
Vhttp://cdn.dota2.com/apps/dota2/images/heroes/ember_spirit_lg.png
p736
sg14
Vhttp://cdn.dota2.com/apps/dota2/images/heroes/ember_spirit_vert.jpg
p737
sg16
I106
sa(dp738
g4
VEarth Spirit
p739
sg6
Vhttp://cdn.dota2.com/apps/dota2/images/heroes/earth_spirit_full.png
p740
sg8
Vnpc_dota_hero_earth_spirit
p741
sg10
Vhttp://cdn.dota2.com/apps/dota2/images/heroes/earth_spirit_sb.png
p742
sg12
Vhttp://cdn.dota2.com/apps/dota2/images/heroes/earth_spirit_lg.png
p743
sg14
Vhttp://cdn.dota2.com/apps/dota2/images/heroes/earth_spirit_vert.jpg
p744
sg16
I107
sa(dp745
g4
VTerrorblade
p746
sg6
Vhttp://cdn.dota2.com/apps/dota2/images/heroes/terrorblade_full.png
p747
sg8
Vnpc_dota_hero_terrorblade
p748
sg10
Vhttp://cdn.dota2.com/apps/dota2/images/heroes/terrorblade_sb.png
p749
sg12
Vhttp://cdn.dota2.com/apps/dota2/images/heroes/terrorblade_lg.png
p750
sg14
Vhttp://cdn.dota2.com/apps/dota2/images/heroes/terrorblade_vert.jpg
p751
sg16
I109
sa(dp752
g4
VPhoenix
p753
sg6
Vhttp://cdn.dota2.com/apps/dota2/images/heroes/phoenix_full.png
p754
sg8
Vnpc_dota_hero_phoenix
p755
sg10
Vhttp://cdn.dota2.com/apps/dota2/images/heroes/phoenix_sb.png
p756
sg12
Vhttp://cdn.dota2.com/apps/dota2/images/heroes/phoenix_lg.png
p757
sg14
Vhttp://cdn.dota2.com/apps/dota2/images/heroes/phoenix_vert.jpg
p758
sg16
I110
sa(dp759
g4
VOracle
p760
sg6
Vhttp://cdn.dota2.com/apps/dota2/images/heroes/oracle_full.png
p761
sg8
Vnpc_dota_hero_oracle
p762
sg10
Vhttp://cdn.dota2.com/apps/dota2/images/heroes/oracle_sb.png
p763
sg12
Vhttp://cdn.dota2.com/apps/dota2/images/heroes/oracle_lg.png
p764
sg14
Vhttp://cdn.dota2.com/apps/dota2/images/heroes/oracle_vert.jpg
p765
sg16
I111
sa(dp766
g4
VTechies
p767
sg6
Vhttp://cdn.dota2.com/apps/dota2/images/heroes/techies_full.png
p768
sg8
Vnpc_dota_hero_techies
p769
sg10
Vhttp://cdn.dota2.com/apps/dota2/images/heroes/techies_sb.png
p770
sg12
Vhttp://cdn.dota2.com/apps/dota2/images/heroes/techies_lg.png
p771
sg14
Vhttp://cdn.dota2.com/apps/dota2/images/heroes/techies_vert.jpg
p772
sg16
I105
sa(dp773
g4
VWinter Wyvern
p774
sg6
Vhttp://cdn.dota2.com/apps/dota2/images/heroes/winter_wyvern_full.png
p775
sg8
Vnpc_dota_hero_winter_wyvern
p776
sg10
Vhttp://cdn.dota2.com/apps/dota2/images/heroes/winter_wyvern_sb.png
p777
sg12
Vhttp://cdn.dota2.com/apps/dota2/images/heroes/winter_wyvern_lg.png
p778
sg14
Vhttp://cdn.dota2.com/apps/dota2/images/heroes/winter_wyvern_vert.jpg
p779
sg16
I112
sa(dp780
g4
VArc Warden
p781
sg6
Vhttp://cdn.dota2.com/apps/dota2/images/heroes/arc_warden_full.png
p782
sg8
Vnpc_dota_hero_arc_warden
p783
sg10
Vhttp://cdn.dota2.com/apps/dota2/images/heroes/arc_warden_sb.png
p784
sg12
Vhttp://cdn.dota2.com/apps/dota2/images/heroes/arc_warden_lg.png
p785
sg14
Vhttp://cdn.dota2.com/apps/dota2/images/heroes/arc_warden_vert.jpg
p786
sg16
I113
sa(dp787
g4
VUnderlord
p788
sg6
Vhttp://cdn.dota2.com/apps/dota2/images/heroes/abyssal_underlord_full.png
p789
sg8
Vnpc_dota_hero_abyssal_underlord
p790
sg10
Vhttp://cdn.dota2.com/apps/dota2/images/heroes/abyssal_underlord_sb.png
p791
sg12
Vhttp://cdn.dota2.com/apps/dota2/images/heroes/abyssal_underlord_lg.png
p792
sg14
Vhttp://cdn.dota2.com/apps/dota2/images/heroes/abyssal_underlord_vert.jpg
p793
sg16
I108
sa(dp794
g4
VMonkey King
p795
sg6
Vhttp://cdn.dota2.com/apps/dota2/images/heroes/monkey_king_full.png
p796
sg8
Vnpc_dota_hero_monkey_king
p797
sg10
Vhttp://cdn.dota2.com/apps/dota2/images/heroes/monkey_king_sb.png
p798
sg12
Vhttp://cdn.dota2.com/apps/dota2/images/heroes/monkey_king_lg.png
p799
sg14
Vhttp://cdn.dota2.com/apps/dota2/images/heroes/monkey_king_vert.jpg
p800
sg16
I114
sas.